target datalayout = "e-m:e-p270:32:32-p271:32:32-p272:64:64-i64:64-i128:128-f80:128-n8:16:32:64-S128"
target triple = "x86_64-pc-linux-gnu"

%struct.when = type { i32, ptr, ptr }

@base_yyout = external global ptr, align 8
@.str.20 = private unnamed_addr constant [12 x i8] c"sqlprint();\00", align 1
@.str.21 = private unnamed_addr constant [9 x i8] c"goto %s;\00", align 1
@.str.22 = private unnamed_addr constant [4 x i8] c"%s;\00", align 1
@.str.23 = private unnamed_addr constant [10 x i8] c"exit (1);\00", align 1
@.str.24 = private unnamed_addr constant [7 x i8] c"break;\00", align 1
@.str.25 = private unnamed_addr constant [10 x i8] c"continue;\00", align 1
@.str.26 = private unnamed_addr constant [31 x i8] c"{/* %d not implemented yet */}\00", align 1

; Function Attrs: nounwind uwtable
define internal void @print_action(ptr noundef %0) #0 {
  %2 = alloca ptr, align 8
  store ptr %0, ptr %2, align 8
  %3 = load ptr, ptr %2, align 8
  %4 = getelementptr inbounds nuw %struct.when, ptr %3, i32 0, i32 0
  %5 = load i32, ptr %4, align 8
  switch i32 %5, label %30 [
    i32 3, label %6
    i32 4, label %9
    i32 5, label %15
    i32 6, label %21
    i32 2, label %24
    i32 1, label %27
  ]

6:                                                ; preds = %1
  %7 = load ptr, ptr @base_yyout, align 8
  %8 = call i32 (ptr, ptr, ...) @pg_fprintf(ptr noundef %7, ptr noundef @.str.20)
  br label %36

9:                                                ; preds = %1
  %10 = load ptr, ptr @base_yyout, align 8
  %11 = load ptr, ptr %2, align 8
  %12 = getelementptr inbounds nuw %struct.when, ptr %11, i32 0, i32 1
  %13 = load ptr, ptr %12, align 8
  %14 = call i32 (ptr, ptr, ...) @pg_fprintf(ptr noundef %10, ptr noundef @.str.21, ptr noundef %13)
  br label %36

15:                                               ; preds = %1
  %16 = load ptr, ptr @base_yyout, align 8
  %17 = load ptr, ptr %2, align 8
  %18 = getelementptr inbounds nuw %struct.when, ptr %17, i32 0, i32 1
  %19 = load ptr, ptr %18, align 8
  %20 = call i32 (ptr, ptr, ...) @pg_fprintf(ptr noundef %16, ptr noundef @.str.22, ptr noundef %19)
  br label %36

21:                                               ; preds = %1
  %22 = load ptr, ptr @base_yyout, align 8
  %23 = call i32 (ptr, ptr, ...) @pg_fprintf(ptr noundef %22, ptr noundef @.str.23)
  br label %36

24:                                               ; preds = %1
  %25 = load ptr, ptr @base_yyout, align 8
  %26 = call i32 (ptr, ptr, ...) @pg_fprintf(ptr noundef %25, ptr noundef @.str.24)
  br label %36

27:                                               ; preds = %1
  %28 = load ptr, ptr @base_yyout, align 8
  %29 = call i32 (ptr, ptr, ...) @pg_fprintf(ptr noundef %28, ptr noundef @.str.25)
  br label %36

30:                                               ; preds = %1
  %31 = load ptr, ptr @base_yyout, align 8
  %32 = load ptr, ptr %2, align 8
  %33 = getelementptr inbounds nuw %struct.when, ptr %32, i32 0, i32 0
  %34 = load i32, ptr %33, align 8
  %35 = call i32 (ptr, ptr, ...) @pg_fprintf(ptr noundef %31, ptr noundef @.str.26, i32 noundef %34)
  br label %36

36:                                               ; preds = %30, %27, %24, %21, %15, %9, %6
  ret void
}