; Function Attrs: nounwind uwtable
define internal fastcc void @print_action(i32 %.0.val, ptr %.8.val) unnamed_addr #0 {
  %1 = load ptr, ptr @base_yyout, align 8
  switch i32 %.0.val, label %14 [
    i32 3, label %2
    i32 4, label %4
    i32 5, label %6
    i32 6, label %8
    i32 2, label %10
    i32 1, label %12
  ]

2:                                                ; preds = %0
  %3 = tail call i32 (ptr, ptr, ...) @pg_fprintf(ptr noundef %1, ptr noundef nonnull @.str.20) #7
  br label %16

4:                                                ; preds = %0
  %5 = tail call i32 (ptr, ptr, ...) @pg_fprintf(ptr noundef %1, ptr noundef nonnull @.str.21, ptr noundef %.8.val) #7
  br label %16

6:                                                ; preds = %0
  %7 = tail call i32 (ptr, ptr, ...) @pg_fprintf(ptr noundef %1, ptr noundef nonnull @.str.22, ptr noundef %.8.val) #7
  br label %16

8:                                                ; preds = %0
  %9 = tail call i32 (ptr, ptr, ...) @pg_fprintf(ptr noundef %1, ptr noundef nonnull @.str.23) #7
  br label %16

10:                                               ; preds = %0
  %11 = tail call i32 (ptr, ptr, ...) @pg_fprintf(ptr noundef %1, ptr noundef nonnull @.str.24) #7
  br label %16

12:                                               ; preds = %0
  %13 = tail call i32 (ptr, ptr, ...) @pg_fprintf(ptr noundef %1, ptr noundef nonnull @.str.25) #7
  br label %16

14:                                               ; preds = %0
  %15 = tail call i32 (ptr, ptr, ...) @pg_fprintf(ptr noundef %1, ptr noundef nonnull @.str.26, i32 noundef %.0.val) #7
  br label %16

16:                                               ; preds = %14, %12, %10, %8, %6, %4, %2
  ret void
}